target datalayout = "e-m:e-p270:32:32-p271:32:32-p272:64:64-i64:64-i128:128-f80:128-n8:16:32:64-S128"
target triple = "x86_64-unknown-linux-gnu"

@.str.13 = private unnamed_addr constant [8 x i8] c"\\W%08lX\00", align 1
@.str.14 = private unnamed_addr constant [8 x i8] c"\\U%04lX\00", align 1
@.str.15 = private unnamed_addr constant [2 x i8] c"\\\00", align 1
@.str.16 = private unnamed_addr constant [6 x i8] c"\\%02X\00", align 1
@.str.17 = private unnamed_addr constant [3 x i8] c"\\\\\00", align 1

; Function Attrs: nounwind uwtable
define internal i32 @do_esc_char(i64 noundef %c, i8 noundef zeroext %flags, ptr noundef %do_quotes, ptr noundef %io_ch, ptr noundef %arg) #0 {
entry:
  %retval = alloca i32, align 4
  %c.addr = alloca i64, align 8
  %flags.addr = alloca i8, align 1
  %do_quotes.addr = alloca ptr, align 8
  %io_ch.addr = alloca ptr, align 8
  %arg.addr = alloca ptr, align 8
  %chflgs = alloca i8, align 1
  %chtmp = alloca i8, align 1
  %tmphex = alloca [19 x i8], align 16
  store i64 %c, ptr %c.addr, align 8
  store i8 %flags, ptr %flags.addr, align 1
  store ptr %do_quotes, ptr %do_quotes.addr, align 8
  store ptr %io_ch, ptr %io_ch.addr, align 8
  store ptr %arg, ptr %arg.addr, align 8
  %0 = load i64, ptr %c.addr, align 8
  %cmp = icmp ugt i64 %0, 4294967295
  br i1 %cmp, label %if.then, label %if.end

if.then:                                          ; preds = %entry
  store i32 -1, ptr %retval, align 4
  br label %return

if.end:                                           ; preds = %entry
  %1 = load i64, ptr %c.addr, align 8
  %cmp1 = icmp ugt i64 %1, 65535
  br i1 %cmp1, label %if.then2, label %if.end7

if.then2:                                         ; preds = %if.end
  %arraydecay = getelementptr inbounds [19 x i8], ptr %tmphex, i64 0, i64 0
  %2 = load i64, ptr %c.addr, align 8
  %call = call i32 (ptr, i64, ptr, ...) @BIO_snprintf(ptr noundef %arraydecay, i64 noundef 19, ptr noundef @.str.13, i64 noundef %2)
  %3 = load ptr, ptr %io_ch.addr, align 8
  %4 = load ptr, ptr %arg.addr, align 8
  %arraydecay3 = getelementptr inbounds [19 x i8], ptr %tmphex, i64 0, i64 0
  %call4 = call i32 %3(ptr noundef %4, ptr noundef %arraydecay3, i32 noundef 10)
  %tobool = icmp ne i32 %call4, 0
  br i1 %tobool, label %if.end6, label %if.then5

if.then5:                                         ; preds = %if.then2
  store i32 -1, ptr %retval, align 4
  br label %return

if.end6:                                          ; preds = %if.then2
  store i32 10, ptr %retval, align 4
  br label %return

if.end7:                                          ; preds = %if.end
  %5 = load i64, ptr %c.addr, align 8
  %cmp8 = icmp ugt i64 %5, 255
  br i1 %cmp8, label %if.then9, label %if.end17

if.then9:                                         ; preds = %if.end7
  %arraydecay10 = getelementptr inbounds [19 x i8], ptr %tmphex, i64 0, i64 0
  %6 = load i64, ptr %c.addr, align 8
  %call11 = call i32 (ptr, i64, ptr, ...) @BIO_snprintf(ptr noundef %arraydecay10, i64 noundef 19, ptr noundef @.str.14, i64 noundef %6)
  %7 = load ptr, ptr %io_ch.addr, align 8
  %8 = load ptr, ptr %arg.addr, align 8
  %arraydecay12 = getelementptr inbounds [19 x i8], ptr %tmphex, i64 0, i64 0
  %call13 = call i32 %7(ptr noundef %8, ptr noundef %arraydecay12, i32 noundef 6)
  %tobool14 = icmp ne i32 %call13, 0
  br i1 %tobool14, label %if.end16, label %if.then15

if.then15:                                        ; preds = %if.then9
  store i32 -1, ptr %retval, align 4
  br label %return

if.end16:                                         ; preds = %if.then9
  store i32 6, ptr %retval, align 4
  br label %return

if.end17:                                         ; preds = %if.end7
  %9 = load i64, ptr %c.addr, align 8
  %conv = trunc i64 %9 to i8
  store i8 %conv, ptr %chtmp, align 1
  %10 = load i8, ptr %chtmp, align 1
  %conv18 = zext i8 %10 to i32
  %cmp19 = icmp sgt i32 %conv18, 127
  br i1 %cmp19, label %if.then21, label %if.else

if.then21:                                        ; preds = %if.end17
  %11 = load i8, ptr %flags.addr, align 1
  %conv22 = zext i8 %11 to i32
  %and = and i32 %conv22, 4
  %conv23 = trunc i32 %and to i8
  store i8 %conv23, ptr %chflgs, align 1
  br label %if.end28

if.else:                                          ; preds = %if.end17
  %12 = load i8, ptr %chtmp, align 1
  %idxprom = zext i8 %12 to i64
  %arrayidx = getelementptr inbounds [128 x i8], ptr @char_type, i64 0, i64 %idxprom
  %13 = load i8, ptr %arrayidx, align 1
  %conv24 = zext i8 %13 to i32
  %14 = load i8, ptr %flags.addr, align 1
  %conv25 = zext i8 %14 to i32
  %and26 = and i32 %conv24, %conv25
  %conv27 = trunc i32 %and26 to i8
  store i8 %conv27, ptr %chflgs, align 1
  br label %if.end28

if.end28:                                         ; preds = %if.else, %if.then21
  %15 = load i8, ptr %chflgs, align 1
  %conv29 = zext i8 %15 to i32
  %and30 = and i32 %conv29, 97
  %tobool31 = icmp ne i32 %and30, 0
  br i1 %tobool31, label %if.then32, label %if.end53

if.then32:                                        ; preds = %if.end28
  %16 = load i8, ptr %chflgs, align 1
  %conv33 = zext i8 %16 to i32
  %and34 = and i32 %conv33, 8
  %tobool35 = icmp ne i32 %and34, 0
  br i1 %tobool35, label %if.then36, label %if.end44

if.then36:                                        ; preds = %if.then32
  %17 = load ptr, ptr %do_quotes.addr, align 8
  %tobool37 = icmp ne ptr %17, null
  br i1 %tobool37, label %if.then38, label %if.end39

if.then38:                                        ; preds = %if.then36
  %18 = load ptr, ptr %do_quotes.addr, align 8
  store i8 1, ptr %18, align 1
  br label %if.end39

if.end39:                                         ; preds = %if.then38, %if.then36
  %19 = load ptr, ptr %io_ch.addr, align 8
  %20 = load ptr, ptr %arg.addr, align 8
  %call40 = call i32 %19(ptr noundef %20, ptr noundef %chtmp, i32 noundef 1)
  %tobool41 = icmp ne i32 %call40, 0
  br i1 %tobool41, label %if.end43, label %if.then42

if.then42:                                        ; preds = %if.end39
  store i32 -1, ptr %retval, align 4
  br label %return

if.end43:                                         ; preds = %if.end39
  store i32 1, ptr %retval, align 4
  br label %return

if.end44:                                         ; preds = %if.then32
  %21 = load ptr, ptr %io_ch.addr, align 8
  %22 = load ptr, ptr %arg.addr, align 8
  %call45 = call i32 %21(ptr noundef %22, ptr noundef @.str.15, i32 noundef 1)
  %tobool46 = icmp ne i32 %call45, 0
  br i1 %tobool46, label %if.end48, label %if.then47

if.then47:                                        ; preds = %if.end44
  store i32 -1, ptr %retval, align 4
  br label %return

if.end48:                                         ; preds = %if.end44
  %23 = load ptr, ptr %io_ch.addr, align 8
  %24 = load ptr, ptr %arg.addr, align 8
  %call49 = call i32 %23(ptr noundef %24, ptr noundef %chtmp, i32 noundef 1)
  %tobool50 = icmp ne i32 %call49, 0
  br i1 %tobool50, label %if.end52, label %if.then51

if.then51:                                        ; preds = %if.end48
  store i32 -1, ptr %retval, align 4
  br label %return

if.end52:                                         ; preds = %if.end48
  store i32 2, ptr %retval, align 4
  br label %return

if.end53:                                         ; preds = %if.end28
  %25 = load i8, ptr %chflgs, align 1
  %conv54 = zext i8 %25 to i32
  %and55 = and i32 %conv54, 6
  %tobool56 = icmp ne i32 %and55, 0
  br i1 %tobool56, label %if.then57, label %if.end66

if.then57:                                        ; preds = %if.end53
  %arraydecay58 = getelementptr inbounds [19 x i8], ptr %tmphex, i64 0, i64 0
  %26 = load i8, ptr %chtmp, align 1
  %conv59 = zext i8 %26 to i32
  %call60 = call i32 (ptr, i64, ptr, ...) @BIO_snprintf(ptr noundef %arraydecay58, i64 noundef 11, ptr noundef @.str.16, i32 noundef %conv59)
  %27 = load ptr, ptr %io_ch.addr, align 8
  %28 = load ptr, ptr %arg.addr, align 8
  %arraydecay61 = getelementptr inbounds [19 x i8], ptr %tmphex, i64 0, i64 0
  %call62 = call i32 %27(ptr noundef %28, ptr noundef %arraydecay61, i32 noundef 3)
  %tobool63 = icmp ne i32 %call62, 0
  br i1 %tobool63, label %if.end65, label %if.then64

if.then64:                                        ; preds = %if.then57
  store i32 -1, ptr %retval, align 4
  br label %return

if.end65:                                         ; preds = %if.then57
  store i32 3, ptr %retval, align 4
  br label %return

if.end66:                                         ; preds = %if.end53
  %29 = load i8, ptr %chtmp, align 1
  %conv67 = zext i8 %29 to i32
  %cmp68 = icmp eq i32 %conv67, 92
  br i1 %cmp68, label %land.lhs.true, label %if.end78

land.lhs.true:                                    ; preds = %if.end66
  %30 = load i8, ptr %flags.addr, align 1
  %conv70 = zext i8 %30 to i32
  %and71 = and i32 %conv70, 15
  %tobool72 = icmp ne i32 %and71, 0
  br i1 %tobool72, label %if.then73, label %if.end78

if.then73:                                        ; preds = %land.lhs.true
  %31 = load ptr, ptr %io_ch.addr, align 8
  %32 = load ptr, ptr %arg.addr, align 8
  %call74 = call i32 %31(ptr noundef %32, ptr noundef @.str.17, i32 noundef 2)
  %tobool75 = icmp ne i32 %call74, 0
  br i1 %tobool75, label %if.end77, label %if.then76

if.then76:                                        ; preds = %if.then73
  store i32 -1, ptr %retval, align 4
  br label %return

if.end77:                                         ; preds = %if.then73
  store i32 2, ptr %retval, align 4
  br label %return

if.end78:                                         ; preds = %land.lhs.true, %if.end66
  %33 = load ptr, ptr %io_ch.addr, align 8
  %34 = load ptr, ptr %arg.addr, align 8
  %call79 = call i32 %33(ptr noundef %34, ptr noundef %chtmp, i32 noundef 1)
  %tobool80 = icmp ne i32 %call79, 0
  br i1 %tobool80, label %if.end82, label %if.then81

if.then81:                                        ; preds = %if.end78
  store i32 -1, ptr %retval, align 4
  br label %return

if.end82:                                         ; preds = %if.end78
  store i32 1, ptr %retval, align 4
  br label %return

return:                                           ; preds = %if.end82, %if.then81, %if.end77, %if.then76, %if.end65, %if.then64, %if.end52, %if.then51, %if.then47, %if.end43, %if.then42, %if.end16, %if.then15, %if.end6, %if.then5, %if.then
  %35 = load i32, ptr %retval, align 4
  ret i32 %35
}