; Function Attrs: nounwind uwtable
define internal fastcc range(i32 -1, 11) i32 @do_esc_char(i64 noundef %c, i8 noundef zeroext range(i8 0, 80) %flags, ptr noundef writeonly %do_quotes, ptr noundef readonly captures(none) %io_ch, ptr noundef %arg) unnamed_addr #0 {
entry:
  %chtmp = alloca i8, align 1
  %tmphex = alloca [19 x i8], align 16
  %cmp = icmp ugt i64 %c, 4294967295
  br i1 %cmp, label %return, label %if.end

if.end:                                           ; preds = %entry
  %cmp1 = icmp samesign ugt i64 %c, 65535
  br i1 %cmp1, label %if.then2, label %if.end7

if.then2:                                         ; preds = %if.end
  %call = call i32 (ptr, i64, ptr, ...) @BIO_snprintf(ptr noundef nonnull %tmphex, i64 noundef 19, ptr noundef nonnull @.str.13, i64 noundef %c) #10
  %call4 = call i32 %io_ch(ptr noundef %arg, ptr noundef nonnull %tmphex, i32 noundef 10) #10, !callees !9
  %tobool.not = icmp eq i32 %call4, 0
  %. = select i1 %tobool.not, i32 -1, i32 10
  br label %return

if.end7:                                          ; preds = %if.end
  %cmp8 = icmp samesign ugt i64 %c, 255
  br i1 %cmp8, label %if.then9, label %if.end17

if.then9:                                         ; preds = %if.end7
  %call11 = call i32 (ptr, i64, ptr, ...) @BIO_snprintf(ptr noundef nonnull %tmphex, i64 noundef 19, ptr noundef nonnull @.str.14, i64 noundef %c) #10
  %call13 = call i32 %io_ch(ptr noundef %arg, ptr noundef nonnull %tmphex, i32 noundef 6) #10, !callees !9
  %tobool14.not = icmp eq i32 %call13, 0
  %.26 = select i1 %tobool14.not, i32 -1, i32 6
  br label %return

if.end17:                                         ; preds = %if.end7
  %conv = trunc nuw i64 %c to i8
  store i8 %conv, ptr %chtmp, align 1
  %cmp19 = icmp samesign ugt i64 %c, 127
  br i1 %cmp19, label %if.then21, label %if.else

if.then21:                                        ; preds = %if.end17
  %0 = and i8 %flags, 4
  br label %if.end28

if.else:                                          ; preds = %if.end17
  %arrayidx = getelementptr inbounds nuw [128 x i8], ptr @char_type, i64 0, i64 %c
  %1 = load i8, ptr %arrayidx, align 1
  %and2625 = and i8 %1, %flags
  br label %if.end28

if.end28:                                         ; preds = %if.else, %if.then21
  %chflgs.0 = phi i8 [ %0, %if.then21 ], [ %and2625, %if.else ]
  %conv29 = zext nneg i8 %chflgs.0 to i32
  %and30 = and i32 %conv29, 97
  %tobool31.not = icmp eq i32 %and30, 0
  br i1 %tobool31.not, label %if.end53, label %if.then32

if.then32:                                        ; preds = %if.end28
  %and34 = and i32 %conv29, 8
  %tobool35.not = icmp eq i32 %and34, 0
  br i1 %tobool35.not, label %if.end44, label %if.then36

if.then36:                                        ; preds = %if.then32
  %tobool37.not = icmp eq ptr %do_quotes, null
  br i1 %tobool37.not, label %if.end39, label %if.then38

if.then38:                                        ; preds = %if.then36
  store i8 1, ptr %do_quotes, align 1
  br label %if.end39

if.end39:                                         ; preds = %if.then38, %if.then36
  %call40 = call i32 %io_ch(ptr noundef %arg, ptr noundef nonnull %chtmp, i32 noundef 1) #10, !callees !9
  %tobool41.not = icmp eq i32 %call40, 0
  %.27 = select i1 %tobool41.not, i32 -1, i32 1
  br label %return

if.end44:                                         ; preds = %if.then32
  %call45 = tail call i32 %io_ch(ptr noundef %arg, ptr noundef nonnull @.str.15, i32 noundef 1) #10, !callees !9
  %tobool46.not = icmp eq i32 %call45, 0
  br i1 %tobool46.not, label %return, label %if.end48

if.end48:                                         ; preds = %if.end44
  %call49 = call i32 %io_ch(ptr noundef %arg, ptr noundef nonnull %chtmp, i32 noundef 1) #10, !callees !9
  %tobool50.not = icmp eq i32 %call49, 0
  %.28 = select i1 %tobool50.not, i32 -1, i32 2
  br label %return

if.end53:                                         ; preds = %if.end28
  %and55 = and i32 %conv29, 6
  %tobool56.not = icmp eq i32 %and55, 0
  br i1 %tobool56.not, label %if.end66, label %if.then57

if.then57:                                        ; preds = %if.end53
  %2 = trunc nuw i64 %c to i32
  %call60 = call i32 (ptr, i64, ptr, ...) @BIO_snprintf(ptr noundef nonnull %tmphex, i64 noundef 11, ptr noundef nonnull @.str.16, i32 noundef %2) #10
  %call62 = call i32 %io_ch(ptr noundef %arg, ptr noundef nonnull %tmphex, i32 noundef 3) #10, !callees !9
  %tobool63.not = icmp eq i32 %call62, 0
  %.29 = select i1 %tobool63.not, i32 -1, i32 3
  br label %return

if.end66:                                         ; preds = %if.end53
  %cmp68 = icmp ne i64 %c, 92
  %3 = and i8 %flags, 15
  %tobool72.not = icmp eq i8 %3, 0
  %or.cond = or i1 %cmp68, %tobool72.not
  br i1 %or.cond, label %if.end78, label %if.then73

if.then73:                                        ; preds = %if.end66
  %call74 = tail call i32 %io_ch(ptr noundef %arg, ptr noundef nonnull @.str.17, i32 noundef 2) #10, !callees !9
  %tobool75.not = icmp eq i32 %call74, 0
  %.30 = select i1 %tobool75.not, i32 -1, i32 2
  br label %return

if.end78:                                         ; preds = %if.end66
  %call79 = call i32 %io_ch(ptr noundef %arg, ptr noundef nonnull %chtmp, i32 noundef 1) #10, !callees !9
  %tobool80.not = icmp eq i32 %call79, 0
  %.31 = select i1 %tobool80.not, i32 -1, i32 1
  br label %return

return:                                           ; preds = %if.end78, %if.then73, %if.then57, %if.end48, %if.end44, %if.end39, %if.then9, %if.then2, %entry
  %retval.0 = phi i32 [ -1, %entry ], [ %., %if.then2 ], [ %.26, %if.then9 ], [ %.27, %if.end39 ], [ -1, %if.end44 ], [ %.28, %if.end48 ], [ %.29, %if.then57 ], [ %.30, %if.then73 ], [ %.31, %if.end78 ]
  ret i32 %retval.0
}